target datalayout = "e-m:e-p270:32:32-p271:32:32-p272:64:64-i64:64-i128:128-f80:128-n8:16:32:64-S128"
target triple = "x86_64-pc-linux-gnu"

%struct._object = type { %union.anon, ptr }
%union.anon = type { i64 }
%struct.PyEvent = type { i8 }
%struct.PyMutex = type { i8 }
%struct.test_data_counter = type { %struct.PyMutex, i64 }
%struct.thread_data_counter = type { ptr, %struct.PyEvent }

@.str.11 = private unnamed_addr constant [49 x i8] c"../cpython/Modules/_testinternalcapi/test_lock.c\00", align 1
@_Py_NoneStruct = external global %struct._object, align 8
@.str.20 = private unnamed_addr constant [58 x i8] c"test_data.counter == COUNTER_THREADS * SLOW_COUNTER_ITERS\00", align 1
@__PRETTY_FUNCTION__.test_lock_counter_slow = private unnamed_addr constant [57 x i8] c"PyObject *test_lock_counter_slow(PyObject *, PyObject *)\00", align 1

; Function Attrs: nounwind uwtable
define internal ptr @test_lock_counter_slow(ptr noundef %0, ptr noundef %1) #0 {
  %3 = alloca ptr, align 8
  %4 = alloca ptr, align 8
  %5 = alloca %struct.test_data_counter, align 8
  %6 = alloca [5 x %struct.thread_data_counter], align 16
  %7 = alloca i64, align 8
  %8 = alloca i64, align 8
  store ptr %0, ptr %3, align 8, !tbaa !3
  store ptr %1, ptr %4, align 8, !tbaa !3
  call void @llvm.lifetime.start.p0(i64 16, ptr %5) #8
  call void @llvm.memset.p0.i64(ptr align 8 %5, i8 0, i64 16, i1 false)
  call void @llvm.lifetime.start.p0(i64 80, ptr %6) #8
  call void @llvm.memset.p0.i64(ptr align 16 %6, i8 0, i64 80, i1 false)
  call void @llvm.lifetime.start.p0(i64 8, ptr %7) #8
  store i64 0, ptr %7, align 8, !tbaa !18
  br label %9

9:                                                ; preds = %20, %2
  %10 = load i64, ptr %7, align 8, !tbaa !18
  %11 = icmp slt i64 %10, 5
  br i1 %11, label %13, label %12

12:                                               ; preds = %9
  call void @llvm.lifetime.end.p0(i64 8, ptr %7) #8
  br label %23

13:                                               ; preds = %9
  %14 = load i64, ptr %7, align 8, !tbaa !18
  %15 = getelementptr [5 x %struct.thread_data_counter], ptr %6, i64 0, i64 %14
  %16 = getelementptr inbounds nuw %struct.thread_data_counter, ptr %15, i32 0, i32 0
  store ptr %5, ptr %16, align 16, !tbaa !20
  %17 = load i64, ptr %7, align 8, !tbaa !18
  %18 = getelementptr [5 x %struct.thread_data_counter], ptr %6, i64 0, i64 %17
  %19 = call i64 @PyThread_start_new_thread(ptr noundef @slow_counter_thread, ptr noundef %18)
  br label %20

20:                                               ; preds = %13
  %21 = load i64, ptr %7, align 8, !tbaa !18
  %22 = add i64 %21, 1
  store i64 %22, ptr %7, align 8, !tbaa !18
  br label %9, !llvm.loop !27

23:                                               ; preds = %12
  call void @llvm.lifetime.start.p0(i64 8, ptr %8) #8
  store i64 0, ptr %8, align 8, !tbaa !18
  br label %24

24:                                               ; preds = %32, %23
  %25 = load i64, ptr %8, align 8, !tbaa !18
  %26 = icmp slt i64 %25, 5
  br i1 %26, label %28, label %27

27:                                               ; preds = %24
  call void @llvm.lifetime.end.p0(i64 8, ptr %8) #8
  br label %35

28:                                               ; preds = %24
  %29 = load i64, ptr %8, align 8, !tbaa !18
  %30 = getelementptr [5 x %struct.thread_data_counter], ptr %6, i64 0, i64 %29
  %31 = getelementptr inbounds nuw %struct.thread_data_counter, ptr %30, i32 0, i32 1
  call void @PyEvent_Wait(ptr noundef %31)
  br label %32

32:                                               ; preds = %28
  %33 = load i64, ptr %8, align 8, !tbaa !18
  %34 = add i64 %33, 1
  store i64 %34, ptr %8, align 8, !tbaa !18
  br label %24, !llvm.loop !28

35:                                               ; preds = %27
  %36 = getelementptr inbounds nuw %struct.test_data_counter, ptr %5, i32 0, i32 1
  %37 = load i64, ptr %36, align 8, !tbaa !25
  %38 = icmp eq i64 %37, 500
  br i1 %38, label %39, label %40

39:                                               ; preds = %35
  br label %42

40:                                               ; preds = %35
  call void @__assert_fail(ptr noundef @.str.20, ptr noundef @.str.11, i32 noundef 189, ptr noundef @__PRETTY_FUNCTION__.test_lock_counter_slow) #9
  unreachable

41:                                               ; No predecessors!
  br label %42

42:                                               ; preds = %41, %39
  call void @llvm.lifetime.end.p0(i64 80, ptr %6) #8
  call void @llvm.lifetime.end.p0(i64 16, ptr %5) #8
  ret ptr @_Py_NoneStruct
}