; Function Attrs: nounwind uwtable
define internal noundef nonnull ptr @test_lock_counter_slow(ptr readnone captures(none) %0, ptr readnone captures(none) %1) #0 {
  %3 = alloca %struct.test_data_counter, align 8
  %4 = alloca [5 x %struct.thread_data_counter], align 16
  call void @llvm.lifetime.start.p0(i64 16, ptr nonnull %3) #6
  call void @llvm.memset.p0.i64(ptr noundef nonnull align 8 dereferenceable(16) %3, i8 0, i64 16, i1 false)
  call void @llvm.lifetime.start.p0(i64 80, ptr nonnull %4) #6
  call void @llvm.memset.p0.i64(ptr noundef nonnull align 16 dereferenceable(80) %4, i8 0, i64 80, i1 false)
  br label %5

5:                                                ; preds = %2, %5
  %.078 = phi i64 [ 0, %2 ], [ %8, %5 ]
  %6 = getelementptr [5 x %struct.thread_data_counter], ptr %4, i64 0, i64 %.078
  store ptr %3, ptr %6, align 16, !tbaa !13
  %7 = call i64 @PyThread_start_new_thread(ptr noundef nonnull @slow_counter_thread, ptr noundef nonnull %6) #6
  %8 = add nuw nsw i64 %.078, 1
  %exitcond.not = icmp eq i64 %8, 5
  br i1 %exitcond.not, label %.preheader, label %5, !llvm.loop !22

9:                                                ; preds = %.preheader
  %10 = getelementptr inbounds nuw i8, ptr %3, i64 8
  %11 = load i64, ptr %10, align 8, !tbaa !18
  %12 = icmp eq i64 %11, 500
  br i1 %12, label %16, label %15

.preheader:                                       ; preds = %5, %.preheader
  %.09 = phi i64 [ %14, %.preheader ], [ 0, %5 ]
  %13 = getelementptr [5 x %struct.thread_data_counter], ptr %4, i64 0, i64 %.09, i32 1
  call void @PyEvent_Wait(ptr noundef %13) #6
  %14 = add nuw nsw i64 %.09, 1
  %exitcond10.not = icmp eq i64 %14, 5
  br i1 %exitcond10.not, label %9, label %.preheader, !llvm.loop !23

15:                                               ; preds = %9
  call void @__assert_fail(ptr noundef nonnull @.str.20, ptr noundef nonnull @.str.11, i32 noundef 189, ptr noundef nonnull @__PRETTY_FUNCTION__.test_lock_counter_slow) #7
  unreachable

16:                                               ; preds = %9
  call void @llvm.lifetime.end.p0(i64 80, ptr nonnull %4) #6
  call void @llvm.lifetime.end.p0(i64 16, ptr nonnull %3) #6
  ret ptr @_Py_NoneStruct
}